target datalayout = "e-m:e-p270:32:32-p271:32:32-p272:64:64-i64:64-i128:128-f80:128-n8:16:32:64-S128"
target triple = "x86_64-pc-linux-gnu"

%struct.h5tools_str_t = type { ptr, i64, i64 }
%struct.h5tools_context_t = type { i64, i64, i32, i32, [32 x i64], [32 x i64], i32, i64, i32, i64, i32, i32, [32 x i64], [32 x i64], i64, ptr, ptr, i32, i32 }
%struct.h5tool_format_t = type { i8, ptr, ptr, ptr, ptr, ptr, ptr, ptr, ptr, ptr, ptr, ptr, ptr, ptr, ptr, ptr, ptr, ptr, i32, i32, i32, ptr, ptr, ptr, i32, ptr, ptr, ptr, ptr, ptr, ptr, ptr, ptr, ptr, ptr, ptr, ptr, ptr, ptr, ptr, ptr, i32, i64, ptr, ptr, ptr, ptr, ptr, i32, ptr, i32, i32, ptr, i32, ptr, ptr, ptr, ptr, i32, i32 }

@.str = private unnamed_addr constant [3 x i8] c"%s\00", align 1
@.str.1 = private unnamed_addr constant [2 x i8] c",\00", align 1
@.str.2 = private unnamed_addr constant [4 x i8] c"%lu\00", align 1
@.str.3 = private unnamed_addr constant [5 x i8] c"%s: \00", align 1

; Function Attrs: nounwind uwtable
define ptr @h5tools_str_reset(ptr noundef %0) #0 {
  %2 = alloca ptr, align 8
  store ptr %0, ptr %2, align 8, !tbaa !3
  %3 = load ptr, ptr %2, align 8, !tbaa !3
  %4 = getelementptr inbounds nuw %struct.h5tools_str_t, ptr %3, i32 0, i32 0
  %5 = load ptr, ptr %4, align 8, !tbaa !12
  %6 = icmp ne ptr %5, null
  br i1 %6, label %7, label %12

7:                                                ; preds = %1
  %8 = load ptr, ptr %2, align 8, !tbaa !3
  %9 = getelementptr inbounds nuw %struct.h5tools_str_t, ptr %8, i32 0, i32 2
  %10 = load i64, ptr %9, align 8, !tbaa !8
  %11 = icmp ule i64 %10, 0
  br i1 %11, label %12, label %21

12:                                               ; preds = %7, %1
  %13 = load ptr, ptr %2, align 8, !tbaa !3
  %14 = getelementptr inbounds nuw %struct.h5tools_str_t, ptr %13, i32 0, i32 2
  store i64 4096, ptr %14, align 8, !tbaa !8
  %15 = load ptr, ptr %2, align 8, !tbaa !3
  %16 = getelementptr inbounds nuw %struct.h5tools_str_t, ptr %15, i32 0, i32 2
  %17 = load i64, ptr %16, align 8, !tbaa !8
  %18 = call noalias ptr @malloc(i64 noundef %17) #15
  %19 = load ptr, ptr %2, align 8, !tbaa !3
  %20 = getelementptr inbounds nuw %struct.h5tools_str_t, ptr %19, i32 0, i32 0
  store ptr %18, ptr %20, align 8, !tbaa !12
  br label %21

21:                                               ; preds = %12, %7
  %22 = load ptr, ptr %2, align 8, !tbaa !3
  %23 = getelementptr inbounds nuw %struct.h5tools_str_t, ptr %22, i32 0, i32 0
  %24 = load ptr, ptr %23, align 8, !tbaa !12
  %25 = getelementptr inbounds i8, ptr %24, i64 0
  store i8 0, ptr %25, align 1, !tbaa !18
  %26 = load ptr, ptr %2, align 8, !tbaa !3
  %27 = getelementptr inbounds nuw %struct.h5tools_str_t, ptr %26, i32 0, i32 1
  store i64 0, ptr %27, align 8, !tbaa !13
  %28 = load ptr, ptr %2, align 8, !tbaa !3
  %29 = getelementptr inbounds nuw %struct.h5tools_str_t, ptr %28, i32 0, i32 0
  %30 = load ptr, ptr %29, align 8, !tbaa !12
  ret ptr %30
}

; Function Attrs: nounwind uwtable
define ptr @h5tools_str_prefix(ptr noundef %0, ptr noundef %1, i64 noundef %2, ptr noundef %3) #0 {
  %5 = alloca ptr, align 8
  %6 = alloca ptr, align 8
  %7 = alloca i64, align 8
  %8 = alloca ptr, align 8
  %9 = alloca i64, align 8
  store ptr %0, ptr %5, align 8, !tbaa !3
  store ptr %1, ptr %6, align 8, !tbaa !19
  store i64 %2, ptr %7, align 8, !tbaa !17
  store ptr %3, ptr %8, align 8, !tbaa !21
  call void @llvm.lifetime.start.p0(i64 8, ptr %9) #12
  store i64 0, ptr %9, align 8, !tbaa !17
  br label %10

10:                                               ; preds = %4
  br label %11

11:                                               ; preds = %10
  br label %12

12:                                               ; preds = %11
  br label %13

13:                                               ; preds = %12
  br label %14

14:                                               ; preds = %13
  br label %15

15:                                               ; preds = %14
  %16 = load ptr, ptr %5, align 8, !tbaa !3
  %17 = call ptr @h5tools_str_reset(ptr noundef %16)
  %18 = load ptr, ptr %8, align 8, !tbaa !21
  %19 = getelementptr inbounds nuw %struct.h5tools_context_t, ptr %18, i32 0, i32 3
  %20 = load i32, ptr %19, align 4, !tbaa !23
  %21 = load i64, ptr %7, align 8, !tbaa !17
  %22 = load ptr, ptr %8, align 8, !tbaa !21
  %23 = getelementptr inbounds nuw %struct.h5tools_context_t, ptr %22, i32 0, i32 12
  %24 = getelementptr inbounds [32 x i64], ptr %23, i64 0, i64 0
  %25 = load ptr, ptr %8, align 8, !tbaa !21
  %26 = getelementptr inbounds nuw %struct.h5tools_context_t, ptr %25, i32 0, i32 13
  %27 = getelementptr inbounds [32 x i64], ptr %26, i64 0, i64 0
  %28 = call i64 @calc_acc_pos(i32 noundef %20, i64 noundef %21, ptr noundef %24, ptr noundef %27)
  %29 = load ptr, ptr %8, align 8, !tbaa !21
  %30 = getelementptr inbounds nuw %struct.h5tools_context_t, ptr %29, i32 0, i32 3
  %31 = load i32, ptr %30, align 4, !tbaa !23
  %32 = icmp ugt i32 %31, 0
  br i1 %32, label %33, label %81

33:                                               ; preds = %15
  store i64 0, ptr %9, align 8, !tbaa !17
  br label %34

34:                                               ; preds = %77, %33
  %35 = load i64, ptr %9, align 8, !tbaa !17
  %36 = load ptr, ptr %8, align 8, !tbaa !21
  %37 = getelementptr inbounds nuw %struct.h5tools_context_t, ptr %36, i32 0, i32 3
  %38 = load i32, ptr %37, align 4, !tbaa !23
  %39 = zext i32 %38 to i64
  %40 = icmp ult i64 %35, %39
  br i1 %40, label %41, label %80

41:                                               ; preds = %34
  %42 = load i64, ptr %9, align 8, !tbaa !17
  %43 = icmp ne i64 %42, 0
  br i1 %43, label %44, label %58

44:                                               ; preds = %41
  %45 = load ptr, ptr %5, align 8, !tbaa !3
  %46 = load ptr, ptr %6, align 8, !tbaa !19
  %47 = getelementptr inbounds nuw %struct.h5tool_format_t, ptr %46, i32 0, i32 39
  %48 = load ptr, ptr %47, align 8, !tbaa !27
  %49 = icmp ne ptr %48, null
  br i1 %49, label %50, label %54

50:                                               ; preds = %44
  %51 = load ptr, ptr %6, align 8, !tbaa !19
  %52 = getelementptr inbounds nuw %struct.h5tool_format_t, ptr %51, i32 0, i32 39
  %53 = load ptr, ptr %52, align 8, !tbaa !27
  br label %55

54:                                               ; preds = %44
  br label %55

55:                                               ; preds = %54, %50
  %56 = phi ptr [ %53, %50 ], [ @.str.1, %54 ]
  %57 = call ptr (ptr, ptr, ...) @h5tools_str_append(ptr noundef %45, ptr noundef @.str, ptr noundef %56)
  br label %58

58:                                               ; preds = %55, %41
  %59 = load ptr, ptr %5, align 8, !tbaa !3
  %60 = load ptr, ptr %6, align 8, !tbaa !19
  %61 = getelementptr inbounds nuw %struct.h5tool_format_t, ptr %60, i32 0, i32 38
  %62 = load ptr, ptr %61, align 8, !tbaa !30
  %63 = icmp ne ptr %62, null
  br i1 %63, label %64, label %68

64:                                               ; preds = %58
  %65 = load ptr, ptr %6, align 8, !tbaa !19
  %66 = getelementptr inbounds nuw %struct.h5tool_format_t, ptr %65, i32 0, i32 38
  %67 = load ptr, ptr %66, align 8, !tbaa !30
  br label %69

68:                                               ; preds = %58
  br label %69

69:                                               ; preds = %68, %64
  %70 = phi ptr [ %67, %64 ], [ @.str.2, %68 ]
  %71 = load ptr, ptr %8, align 8, !tbaa !21
  %72 = getelementptr inbounds nuw %struct.h5tools_context_t, ptr %71, i32 0, i32 13
  %73 = load i64, ptr %9, align 8, !tbaa !17
  %74 = getelementptr inbounds nuw [32 x i64], ptr %72, i64 0, i64 %73
  %75 = load i64, ptr %74, align 8, !tbaa !17
  %76 = call ptr (ptr, ptr, ...) @h5tools_str_append(ptr noundef %59, ptr noundef %70, i64 noundef %75)
  br label %77

77:                                               ; preds = %69
  %78 = load i64, ptr %9, align 8, !tbaa !17
  %79 = add i64 %78, 1
  store i64 %79, ptr %9, align 8, !tbaa !17
  br label %34, !llvm.loop !31

80:                                               ; preds = %34
  br label %96

81:                                               ; preds = %15
  %82 = load ptr, ptr %5, align 8, !tbaa !3
  %83 = load ptr, ptr %6, align 8, !tbaa !19
  %84 = getelementptr inbounds nuw %struct.h5tool_format_t, ptr %83, i32 0, i32 38
  %85 = load ptr, ptr %84, align 8, !tbaa !30
  %86 = icmp ne ptr %85, null
  br i1 %86, label %87, label %91

87:                                               ; preds = %81
  %88 = load ptr, ptr %6, align 8, !tbaa !19
  %89 = getelementptr inbounds nuw %struct.h5tool_format_t, ptr %88, i32 0, i32 38
  %90 = load ptr, ptr %89, align 8, !tbaa !30
  br label %92

91:                                               ; preds = %81
  br label %92

92:                                               ; preds = %91, %87
  %93 = phi ptr [ %90, %87 ], [ @.str.2, %91 ]
  %94 = load i64, ptr %7, align 8, !tbaa !17
  %95 = call ptr (ptr, ptr, ...) @h5tools_str_append(ptr noundef %82, ptr noundef %93, i64 noundef %94)
  br label %96

96:                                               ; preds = %92, %80
  br label %97

97:                                               ; preds = %96
  br label %98

98:                                               ; preds = %97
  br label %99

99:                                               ; preds = %98
  br label %100

100:                                              ; preds = %99
  br label %101

101:                                              ; preds = %100
  br label %102

102:                                              ; preds = %101
  %103 = load ptr, ptr %5, align 8, !tbaa !3
  %104 = load ptr, ptr %6, align 8, !tbaa !19
  %105 = getelementptr inbounds nuw %struct.h5tool_format_t, ptr %104, i32 0, i32 40
  %106 = load ptr, ptr %105, align 8, !tbaa !33
  %107 = icmp ne ptr %106, null
  br i1 %107, label %108, label %112

108:                                              ; preds = %102
  %109 = load ptr, ptr %6, align 8, !tbaa !19
  %110 = getelementptr inbounds nuw %struct.h5tool_format_t, ptr %109, i32 0, i32 40
  %111 = load ptr, ptr %110, align 8, !tbaa !33
  br label %113

112:                                              ; preds = %102
  br label %113

113:                                              ; preds = %112, %108
  %114 = phi ptr [ %111, %108 ], [ @.str.3, %112 ]
  %115 = call ptr @h5tools_str_fmt(ptr noundef %103, i64 noundef 0, ptr noundef %114)
  call void @llvm.lifetime.end.p0(i64 8, ptr %9) #12
  ret ptr %115
}