; Function Attrs: nounwind uwtable
define ptr @h5tools_str_prefix(ptr noundef captures(none) initializes((8, 16)) %0, ptr noundef readonly captures(none) %1, i64 noundef %2, ptr noundef %3) local_unnamed_addr #4 {
  %5 = load ptr, ptr %0, align 8, !tbaa !10
  %.not.i = icmp eq ptr %5, null
  br i1 %.not.i, label %10, label %6

6:                                                ; preds = %4
  %7 = getelementptr inbounds nuw i8, ptr %0, i64 16
  %8 = load i64, ptr %7, align 8, !tbaa !3
  %9 = icmp eq i64 %8, 0
  br i1 %9, label %10, label %h5tools_str_reset.exit

10:                                               ; preds = %6, %4
  %11 = getelementptr inbounds nuw i8, ptr %0, i64 16
  store i64 4096, ptr %11, align 8, !tbaa !3
  %12 = tail call noalias dereferenceable_or_null(4096) ptr @malloc(i64 noundef 4096) #22
  store ptr %12, ptr %0, align 8, !tbaa !10
  br label %h5tools_str_reset.exit

h5tools_str_reset.exit:                           ; preds = %6, %10
  %13 = phi ptr [ %12, %10 ], [ %5, %6 ]
  store i8 0, ptr %13, align 1, !tbaa !12
  %14 = getelementptr inbounds nuw i8, ptr %0, i64 8
  store i64 0, ptr %14, align 8, !tbaa !11
  %15 = getelementptr inbounds nuw i8, ptr %3, i64 20
  %16 = load i32, ptr %15, align 4, !tbaa !13
  %17 = getelementptr inbounds nuw i8, ptr %3, i64 576
  %18 = getelementptr inbounds nuw i8, ptr %3, i64 832
  %19 = tail call i64 @calc_acc_pos(i32 noundef %16, i64 noundef %2, ptr noundef nonnull %17, ptr noundef nonnull %18) #21
  %20 = load i32, ptr %15, align 4, !tbaa !13
  %.not = icmp eq i32 %20, 0
  br i1 %.not, label %36, label %.lr.ph

.lr.ph:                                           ; preds = %h5tools_str_reset.exit
  %21 = getelementptr inbounds nuw i8, ptr %1, i64 304
  %22 = getelementptr inbounds nuw i8, ptr %1, i64 296
  br label %23

23:                                               ; preds = %.lr.ph, %27
  %.036 = phi i64 [ 0, %.lr.ph ], [ %32, %27 ]
  %.not30 = icmp eq i64 %.036, 0
  br i1 %.not30, label %27, label %24

24:                                               ; preds = %23
  %25 = load ptr, ptr %21, align 8, !tbaa !18
  %.not31 = icmp eq ptr %25, null
  %spec.select = select i1 %.not31, ptr @.str.1, ptr %25
  %26 = tail call ptr (ptr, ptr, ...) @h5tools_str_append(ptr noundef nonnull %0, ptr noundef nonnull @.str, ptr noundef nonnull %spec.select)
  br label %27

27:                                               ; preds = %24, %23
  %28 = load ptr, ptr %22, align 8, !tbaa !21
  %.not32 = icmp eq ptr %28, null
  %spec.select33 = select i1 %.not32, ptr @.str.2, ptr %28
  %29 = getelementptr inbounds nuw [32 x i64], ptr %18, i64 0, i64 %.036
  %30 = load i64, ptr %29, align 8, !tbaa !22
  %31 = tail call ptr (ptr, ptr, ...) @h5tools_str_append(ptr noundef nonnull %0, ptr noundef nonnull %spec.select33, i64 noundef %30)
  %32 = add nuw nsw i64 %.036, 1
  %33 = load i32, ptr %15, align 4, !tbaa !13
  %34 = zext i32 %33 to i64
  %35 = icmp samesign ult i64 %32, %34
  br i1 %35, label %23, label %.loopexit, !llvm.loop !23

36:                                               ; preds = %h5tools_str_reset.exit
  %37 = getelementptr inbounds nuw i8, ptr %1, i64 296
  %38 = load ptr, ptr %37, align 8, !tbaa !21
  %.not28 = icmp eq ptr %38, null
  %spec.select34 = select i1 %.not28, ptr @.str.2, ptr %38
  %39 = tail call ptr (ptr, ptr, ...) @h5tools_str_append(ptr noundef nonnull %0, ptr noundef nonnull %spec.select34, i64 noundef %2)
  br label %.loopexit

.loopexit:                                        ; preds = %27, %36
  %40 = getelementptr inbounds nuw i8, ptr %1, i64 312
  %41 = load ptr, ptr %40, align 8, !tbaa !25
  %.not29 = icmp eq ptr %41, null
  %spec.select35 = select i1 %.not29, ptr @.str.3, ptr %41
  %42 = tail call ptr @h5tools_str_fmt(ptr noundef nonnull %0, i64 noundef 0, ptr noundef nonnull %spec.select35)
  ret ptr %42
}